target datalayout = "e-m:e-p270:32:32-p271:32:32-p272:64:64-i64:64-i128:128-f80:128-n8:16:32:64-S128"
target triple = "x86_64-unknown-linux-gnu"

%"class.EA::StdC::DateTime" = type <{ i64, i32, [4 x i8] }>
%"class.EA::StdC::int128_t" = type { %"class.EA::StdC::int128_t_base" }
%"class.EA::StdC::int128_t_base" = type { i64, i64 }

; Function Attrs: mustprogress uwtable
define dso_local void @_ZN2EA4StdC8DateTime14SetNanosecondsERKNS0_8int128_tE(ptr noundef nonnull align 8 dereferenceable(12) %this, ptr noundef nonnull align 8 dereferenceable(16) %nanoseconds) #0 align 2 {
entry:
  %this.addr = alloca ptr, align 8
  %nanoseconds.addr = alloca ptr, align 8
  %seconds = alloca %"class.EA::StdC::int128_t", align 8
  %ref.tmp = alloca %"class.EA::StdC::int128_t", align 8
  %nanosecond = alloca %"class.EA::StdC::int128_t", align 8
  %ref.tmp2 = alloca %"class.EA::StdC::int128_t", align 8
  store ptr %this, ptr %this.addr, align 8
  store ptr %nanoseconds, ptr %nanoseconds.addr, align 8
  %this1 = load ptr, ptr %this.addr, align 8
  %0 = load ptr, ptr %nanoseconds.addr, align 8
  call void @_ZN2EA4StdC8int128_tC1Ei(ptr noundef nonnull align 8 dereferenceable(16) %ref.tmp, i32 noundef 1000000000)
  call void @_ZN2EA4StdCdvERKNS0_8int128_tES3_(ptr sret(%"class.EA::StdC::int128_t") align 8 %seconds, ptr noundef nonnull align 8 dereferenceable(16) %0, ptr noundef nonnull align 8 dereferenceable(16) %ref.tmp)
  %1 = load ptr, ptr %nanoseconds.addr, align 8
  call void @_ZN2EA4StdC8int128_tC1Ei(ptr noundef nonnull align 8 dereferenceable(16) %ref.tmp2, i32 noundef 1000000000)
  call void @_ZN2EA4StdCrmERKNS0_8int128_tES3_(ptr sret(%"class.EA::StdC::int128_t") align 8 %nanosecond, ptr noundef nonnull align 8 dereferenceable(16) %1, ptr noundef nonnull align 8 dereferenceable(16) %ref.tmp2)
  %call = call noundef i64 @_ZNK2EA4StdC8int128_t7AsInt64Ev(ptr noundef nonnull align 8 dereferenceable(16) %seconds)
  %mnSeconds = getelementptr inbounds %"class.EA::StdC::DateTime", ptr %this1, i32 0, i32 0
  store i64 %call, ptr %mnSeconds, align 8
  %call3 = call noundef i32 @_ZNK2EA4StdC13int128_t_base8AsUint32Ev(ptr noundef nonnull align 8 dereferenceable(16) %nanosecond)
  %mnNanosecond = getelementptr inbounds %"class.EA::StdC::DateTime", ptr %this1, i32 0, i32 1
  store i32 %call3, ptr %mnNanosecond, align 8
  ret void
}