; Function Attrs: mustprogress uwtable
define dso_local void @_ZN2EA4StdC8DateTime14SetNanosecondsERKNS0_8int128_tE(ptr noundef nonnull writeonly align 8 captures(none) dereferenceable(12) initializes((0, 12)) %this, ptr noundef nonnull align 8 dereferenceable(16) %nanoseconds) local_unnamed_addr #0 align 2 {
entry:
  %seconds = alloca %"class.EA::StdC::int128_t", align 8
  %ref.tmp = alloca %"class.EA::StdC::int128_t", align 8
  %nanosecond = alloca %"class.EA::StdC::int128_t", align 8
  %ref.tmp2 = alloca %"class.EA::StdC::int128_t", align 8
  call void @_ZN2EA4StdC8int128_tC1Ei(ptr noundef nonnull align 8 dereferenceable(16) %ref.tmp, i32 noundef 1000000000)
  call void @_ZN2EA4StdCdvERKNS0_8int128_tES3_(ptr nonnull sret(%"class.EA::StdC::int128_t") align 8 %seconds, ptr noundef nonnull align 8 dereferenceable(16) %nanoseconds, ptr noundef nonnull align 8 dereferenceable(16) %ref.tmp)
  call void @_ZN2EA4StdC8int128_tC1Ei(ptr noundef nonnull align 8 dereferenceable(16) %ref.tmp2, i32 noundef 1000000000)
  call void @_ZN2EA4StdCrmERKNS0_8int128_tES3_(ptr nonnull sret(%"class.EA::StdC::int128_t") align 8 %nanosecond, ptr noundef nonnull align 8 dereferenceable(16) %nanoseconds, ptr noundef nonnull align 8 dereferenceable(16) %ref.tmp2)
  %call = call noundef i64 @_ZNK2EA4StdC8int128_t7AsInt64Ev(ptr noundef nonnull align 8 dereferenceable(16) %seconds)
  store i64 %call, ptr %this, align 8
  %call3 = call noundef i32 @_ZNK2EA4StdC13int128_t_base8AsUint32Ev(ptr noundef nonnull align 8 dereferenceable(16) %nanosecond)
  %mnNanosecond = getelementptr inbounds nuw i8, ptr %this, i64 8
  store i32 %call3, ptr %mnNanosecond, align 8
  ret void
}